(dp0
S'Mickey Mouse'
p1
ccopy_reg
_reconstructor
p2
(cPerson
Athlete
p3
c__builtin__
list
p4
(lp5
tp6
Rp7
(dp8
S'dob'
p9
S'2010-10-1'
p10
sS'name'
p11
g1
sS'times'
p12
(lp13
S'2:22'
p14
aS'3.01'
p15
aS'3:01'
p16
aS'3.02'
p17
aS'3:02'
p18
aS'3.02'
p19
aS'3:22'
p20
aS'2.49'
p21
aS'2:38'
p22
asbsS'Sarah Sweeney'
p23
g2
(g3
g4
(lp24
tp25
Rp26
(dp27
g9
S'2002-6-17'
p28
sg11
g23
sg12
(lp29
S'2:58'
p30
aS'2.58'
p31
aS'2:39'
p32
aS'2-25'
p33
aS'2-55'
p34
aS'2:54'
p35
aS'2.18'
p36
aS'2:55'
p37
aS'2:55'
p38
aS'2:22'
p39
aS'2-21'
p40
aS'2.22'
p41
asbsS'Julie Norton'
p42
g2
(g3
g4
(lp43
tp44
Rp45
(dp46
g9
S'2012-10-1'
p47
sg11
g42
sg12
(lp48
S'2.59'
p49
aS'2.11'
p50
aS'2:11'
p51
aS'2:23'
p52
aS'3-10'
p53
aS'2-23'
p54
aS'3:10'
p55
aS'3.21'
p56
aS'3-21'
p57
asbsS'James fordin'
p58
g2
(g3
g4
(lp59
tp60
Rp61
(dp62
g9
S'2016-10-1'
p63
sg11
g58
sg12
(lp64
S'2-34'
p65
aS'3:21'
p66
aS'2.34'
p67
aS'2.45'
p68
aS'3.01'
p69
aS'2:01'
p70
aS'2:01'
p71
aS'3:10'
p72
aS'2-22'
p73
asbs.