(dp0
S'Mickey Mouse'
p1
ccopy_reg
_reconstructor
p2
(cPerson
Athlete
p3
c__builtin__
list
p4
(lp5
S'2:22'
p6
aS'3.01'
p7
aS'3:01'
p8
aS'3.02'
p9
aS'3:02'
p10
aS'3.02'
p11
aS'3:22'
p12
aS'2.49'
p13
aS'2:38'
p14
atp15
Rp16
(dp17
S'dob'
p18
S'2010-10-1'
p19
sS'name'
p20
g1
sbsS'Sarah Sweeney'
p21
g2
(g3
g4
(lp22
S'2:58'
p23
aS'2.58'
p24
aS'2:39'
p25
aS'2-25'
p26
aS'2-55'
p27
aS'2:54'
p28
aS'2.18'
p29
aS'2:55'
p30
aS'2:55'
p31
aS'2:22'
p32
aS'2-21'
p33
aS'2.22'
p34
atp35
Rp36
(dp37
g18
S'2002-6-17'
p38
sg20
g21
sbsS'Julie Norton'
p39
g2
(g3
g4
(lp40
S'2.59'
p41
aS'2.11'
p42
aS'2:11'
p43
aS'2:23'
p44
aS'3-10'
p45
aS'2-23'
p46
aS'3:10'
p47
aS'3.21'
p48
aS'3-21'
p49
atp50
Rp51
(dp52
g18
S'2012-10-1'
p53
sg20
g39
sbsS'James fordin'
p54
g2
(g3
g4
(lp55
S'2-34'
p56
aS'3:21'
p57
aS'2.34'
p58
aS'2.45'
p59
aS'3.01'
p60
aS'2:01'
p61
aS'2:01'
p62
aS'3:10'
p63
aS'2-22'
p64
atp65
Rp66
(dp67
g18
S'2016-10-1'
p68
sg20
g54
sbs.